; Function Attrs: nounwind uwtable
define dso_local range(i32 -4, 1) i32 @set_form_fields(ptr noundef %0, ptr noundef %1) local_unnamed_addr #0 {
  %.not = icmp eq ptr %0, null
  br i1 %.not, label %Associate_Fields.exit.thread, label %3

3:                                                ; preds = %2
  %4 = load i16, ptr %0, align 8
  %5 = and i16 %4, 1
  %.not10 = icmp eq i16 %5, 0
  br i1 %.not10, label %6, label %Associate_Fields.exit.thread

6:                                                ; preds = %3
  %7 = getelementptr inbounds nuw i8, ptr %0, i64 64
  %8 = load ptr, ptr %7, align 8
  %.not.i = icmp eq ptr %8, null
  br i1 %.not.i, label %Disconnect_Fields.exit, label %.preheader.i

.preheader.i:                                     ; preds = %6
  %9 = load ptr, ptr %8, align 8
  %.not1820.i = icmp eq ptr %9, null
  br i1 %.not1820.i, label %._crit_edge.i, label %.lr.ph.i

.lr.ph.i:                                         ; preds = %.preheader.i, %15
  %10 = phi ptr [ %17, %15 ], [ %9, %.preheader.i ]
  %.021.i = phi ptr [ %16, %15 ], [ %8, %.preheader.i ]
  %11 = getelementptr inbounds nuw i8, ptr %10, i64 80
  %12 = load ptr, ptr %11, align 8
  %13 = icmp eq ptr %0, %12
  br i1 %13, label %14, label %15

14:                                               ; preds = %.lr.ph.i
  store ptr null, ptr %11, align 8
  br label %15

15:                                               ; preds = %14, %.lr.ph.i
  %16 = getelementptr inbounds nuw i8, ptr %.021.i, i64 8
  %17 = load ptr, ptr %16, align 8
  %.not18.i = icmp eq ptr %17, null
  br i1 %.not18.i, label %._crit_edge.i, label %.lr.ph.i, !llvm.loop !5

._crit_edge.i:                                    ; preds = %15, %.preheader.i
  %18 = getelementptr inbounds nuw i8, ptr %0, i64 4
  store i16 0, ptr %18, align 4
  %19 = getelementptr inbounds nuw i8, ptr %0, i64 2
  store i16 0, ptr %19, align 2
  %20 = getelementptr inbounds nuw i8, ptr %0, i64 26
  store i16 -1, ptr %20, align 2
  %21 = getelementptr inbounds nuw i8, ptr %0, i64 24
  store i16 -1, ptr %21, align 8
  store ptr null, ptr %7, align 8
  %22 = getelementptr inbounds nuw i8, ptr %0, i64 80
  %23 = load ptr, ptr %22, align 8
  %.not19.i = icmp eq ptr %23, null
  br i1 %.not19.i, label %25, label %24

24:                                               ; preds = %._crit_edge.i
  tail call void @free(ptr noundef nonnull %23) #11
  br label %25

25:                                               ; preds = %24, %._crit_edge.i
  store ptr null, ptr %22, align 8
  br label %Disconnect_Fields.exit

Disconnect_Fields.exit:                           ; preds = %6, %25
  %26 = tail call fastcc i32 @Connect_Fields(ptr noundef nonnull %0, ptr noundef %1)
  %27 = icmp eq i32 %26, 0
  br i1 %27, label %28, label %Associate_Fields.exit

28:                                               ; preds = %Disconnect_Fields.exit
  %29 = getelementptr inbounds nuw i8, ptr %0, i64 26
  %30 = load i16, ptr %29, align 2
  %31 = icmp sgt i16 %30, 0
  %32 = getelementptr inbounds nuw i8, ptr %0, i64 28
  br i1 %31, label %33, label %35

33:                                               ; preds = %28
  store i16 0, ptr %32, align 4
  %34 = tail call i32 @form_driver(ptr noundef nonnull %0, i32 noundef -291056) #11
  br label %Associate_Fields.exit.thread

35:                                               ; preds = %28
  store i16 -1, ptr %32, align 4
  %36 = getelementptr inbounds nuw i8, ptr %0, i64 72
  store ptr null, ptr %36, align 8
  br label %Associate_Fields.exit.thread

Associate_Fields.exit:                            ; preds = %Disconnect_Fields.exit
  %37 = tail call fastcc i32 @Connect_Fields(ptr noundef %0, ptr noundef %8)
  br label %Associate_Fields.exit.thread

Associate_Fields.exit.thread:                     ; preds = %Associate_Fields.exit, %33, %35, %3, %2
  %.sink = phi i32 [ -2, %2 ], [ -3, %3 ], [ %26, %35 ], [ %26, %33 ], [ %26, %Associate_Fields.exit ]
  %38 = tail call ptr @__errno_location() #10
  store i32 %.sink, ptr %38, align 4
  ret i32 %.sink
}